
hello:     file format elf32-littleriscv


Disassembly of section .init:

20400000 <_start>:
20400000:	5fc01197          	auipc	gp,0x5fc01
20400004:	86018193          	addi	gp,gp,-1952 # 80000860 <__global_pointer$>
20400008:	5fc04117          	auipc	sp,0x5fc04
2040000c:	ff810113          	addi	sp,sp,-8 # 80004000 <_sp>
20400010:	00001517          	auipc	a0,0x1
20400014:	27050513          	addi	a0,a0,624 # 20401280 <__fini_array_end>
20400018:	5fc00597          	auipc	a1,0x5fc00
2040001c:	fe858593          	addi	a1,a1,-24 # 80000000 <_data>
20400020:	80818613          	addi	a2,gp,-2040 # 80000068 <__bss_start>
20400024:	00c5fc63          	bgeu	a1,a2,2040003c <_start+0x3c>
20400028:	00052283          	lw	t0,0(a0)
2040002c:	0055a023          	sw	t0,0(a1)
20400030:	00450513          	addi	a0,a0,4
20400034:	00458593          	addi	a1,a1,4
20400038:	fec5e8e3          	bltu	a1,a2,20400028 <_start+0x28>
2040003c:	80818513          	addi	a0,gp,-2040 # 80000068 <__bss_start>
20400040:	8a018593          	addi	a1,gp,-1888 # 80000100 <_end>
20400044:	00b57863          	bgeu	a0,a1,20400054 <_start+0x54>
20400048:	00052023          	sw	zero,0(a0)
2040004c:	00450513          	addi	a0,a0,4
20400050:	feb56ce3          	bltu	a0,a1,20400048 <_start+0x48>
20400054:	00001517          	auipc	a0,0x1
20400058:	c6050513          	addi	a0,a0,-928 # 20400cb4 <__libc_fini_array>
2040005c:	405000ef          	jal	ra,20400c60 <atexit>
20400060:	4b1000ef          	jal	ra,20400d10 <__libc_init_array>
20400064:	00000097          	auipc	ra,0x0
20400068:	ff010113          	addi	sp,sp,-16
2040006c:	00112423          	sw	ra,8(sp)
20400070:	00000513          	li	a0,0
20400074:	00000593          	li	a1,0
20400078:	00c000ef          	jal	ra,20400084 <main>
2040007c:	3f90006f          	j	20400c74 <exit>
20400080:	0000006f          	j	20400080 <_start+0x80>

Disassembly of section .text:

20400084 <main>:
20400084:	100127b7          	lui	a5,0x10012
20400088:	03c7a683          	lw	a3,60(a5) # 1001203c <__stack_size+0x1001183c>
2040008c:	0387a703          	lw	a4,56(a5)
20400090:	fffd0637          	lui	a2,0xfffd0
20400094:	fff60613          	addi	a2,a2,-1 # fffcffff <_sp+0x7ffcbfff>
20400098:	fe010113          	addi	sp,sp,-32
2040009c:	00c6f6b3          	and	a3,a3,a2
204000a0:	00030637          	lui	a2,0x30
204000a4:	00812c23          	sw	s0,24(sp)
204000a8:	00912a23          	sw	s1,20(sp)
204000ac:	00112e23          	sw	ra,28(sp)
204000b0:	00c76733          	or	a4,a4,a2
204000b4:	02d7ae23          	sw	a3,60(a5)
204000b8:	02e7ac23          	sw	a4,56(a5)
204000bc:	00100793          	li	a5,1
204000c0:	00f12623          	sw	a5,12(sp)
204000c4:	00100413          	li	s0,1
204000c8:	00b00493          	li	s1,11
204000cc:	00c12503          	lw	a0,12(sp)
204000d0:	00040593          	mv	a1,s0
204000d4:	00140413          	addi	s0,s0,1
204000d8:	6d9000ef          	jal	ra,20400fb0 <__mulsi3>
204000dc:	00a12623          	sw	a0,12(sp)
204000e0:	fe9416e3          	bne	s0,s1,204000cc <main+0x48>
204000e4:	00c12783          	lw	a5,12(sp)
204000e8:	00001517          	auipc	a0,0x1
204000ec:	fa050513          	addi	a0,a0,-96 # 20401088 <__modsi3+0x30>
204000f0:	00f12423          	sw	a5,8(sp)
204000f4:	00812583          	lw	a1,8(sp)
204000f8:	2a5000ef          	jal	ra,20400b9c <__wrap_printf>
204000fc:	00001517          	auipc	a0,0x1
20400100:	fa050513          	addi	a0,a0,-96 # 2040109c <__modsi3+0x44>
20400104:	299000ef          	jal	ra,20400b9c <__wrap_printf>
20400108:	01c12083          	lw	ra,28(sp)
2040010c:	01812403          	lw	s0,24(sp)
20400110:	01412483          	lw	s1,20(sp)
20400114:	00000513          	li	a0,0
20400118:	02010113          	addi	sp,sp,32
2040011c:	00008067          	ret

20400120 <trap_entry>:
20400120:	f8010113          	addi	sp,sp,-128
20400124:	00112223          	sw	ra,4(sp)
20400128:	00212423          	sw	sp,8(sp)
2040012c:	00312623          	sw	gp,12(sp)
20400130:	00412823          	sw	tp,16(sp)
20400134:	00512a23          	sw	t0,20(sp)
20400138:	00612c23          	sw	t1,24(sp)
2040013c:	00712e23          	sw	t2,28(sp)
20400140:	02812023          	sw	s0,32(sp)
20400144:	02912223          	sw	s1,36(sp)
20400148:	02a12423          	sw	a0,40(sp)
2040014c:	02b12623          	sw	a1,44(sp)
20400150:	02c12823          	sw	a2,48(sp)
20400154:	02d12a23          	sw	a3,52(sp)
20400158:	02e12c23          	sw	a4,56(sp)
2040015c:	02f12e23          	sw	a5,60(sp)
20400160:	05012023          	sw	a6,64(sp)
20400164:	05112223          	sw	a7,68(sp)
20400168:	05212423          	sw	s2,72(sp)
2040016c:	05312623          	sw	s3,76(sp)
20400170:	05412823          	sw	s4,80(sp)
20400174:	05512a23          	sw	s5,84(sp)
20400178:	05612c23          	sw	s6,88(sp)
2040017c:	05712e23          	sw	s7,92(sp)
20400180:	07812023          	sw	s8,96(sp)
20400184:	07912223          	sw	s9,100(sp)
20400188:	07a12423          	sw	s10,104(sp)
2040018c:	07b12623          	sw	s11,108(sp)
20400190:	07c12823          	sw	t3,112(sp)
20400194:	07d12a23          	sw	t4,116(sp)
20400198:	07e12c23          	sw	t5,120(sp)
2040019c:	07f12e23          	sw	t6,124(sp)
204001a0:	34202573          	csrr	a0,mcause
204001a4:	341025f3          	csrr	a1,mepc
204001a8:	00010613          	mv	a2,sp
204001ac:	1e0000ef          	jal	ra,2040038c <handle_trap>
204001b0:	34151073          	csrw	mepc,a0
204001b4:	000022b7          	lui	t0,0x2
204001b8:	80028293          	addi	t0,t0,-2048 # 1800 <__stack_size+0x1000>
204001bc:	3002a073          	csrs	mstatus,t0
204001c0:	00412083          	lw	ra,4(sp)
204001c4:	00812103          	lw	sp,8(sp)
204001c8:	00c12183          	lw	gp,12(sp)
204001cc:	01012203          	lw	tp,16(sp)
204001d0:	01412283          	lw	t0,20(sp)
204001d4:	01812303          	lw	t1,24(sp)
204001d8:	01c12383          	lw	t2,28(sp)
204001dc:	02012403          	lw	s0,32(sp)
204001e0:	02412483          	lw	s1,36(sp)
204001e4:	02812503          	lw	a0,40(sp)
204001e8:	02c12583          	lw	a1,44(sp)
204001ec:	03012603          	lw	a2,48(sp)
204001f0:	03412683          	lw	a3,52(sp)
204001f4:	03812703          	lw	a4,56(sp)
204001f8:	03c12783          	lw	a5,60(sp)
204001fc:	04012803          	lw	a6,64(sp)
20400200:	04412883          	lw	a7,68(sp)
20400204:	04812903          	lw	s2,72(sp)
20400208:	04c12983          	lw	s3,76(sp)
2040020c:	05012a03          	lw	s4,80(sp)
20400210:	05412a83          	lw	s5,84(sp)
20400214:	05812b03          	lw	s6,88(sp)
20400218:	05c12b83          	lw	s7,92(sp)
2040021c:	06012c03          	lw	s8,96(sp)
20400220:	06412c83          	lw	s9,100(sp)
20400224:	06812d03          	lw	s10,104(sp)
20400228:	06c12d83          	lw	s11,108(sp)
2040022c:	07012e03          	lw	t3,112(sp)
20400230:	07412e83          	lw	t4,116(sp)
20400234:	07812f03          	lw	t5,120(sp)
20400238:	07c12f83          	lw	t6,124(sp)
2040023c:	08010113          	addi	sp,sp,128
20400240:	30200073          	mret
20400244:	0000006f          	j	20400244 <trap_entry+0x124>

20400248 <factorial>:
20400248:	fe010113          	addi	sp,sp,-32
2040024c:	00100793          	li	a5,1
20400250:	00112e23          	sw	ra,28(sp)
20400254:	00812c23          	sw	s0,24(sp)
20400258:	00912a23          	sw	s1,20(sp)
2040025c:	00f12623          	sw	a5,12(sp)
20400260:	02a05263          	blez	a0,20400284 <factorial+0x3c>
20400264:	00150493          	addi	s1,a0,1
20400268:	00100413          	li	s0,1
2040026c:	00c12503          	lw	a0,12(sp)
20400270:	00040593          	mv	a1,s0
20400274:	00140413          	addi	s0,s0,1
20400278:	539000ef          	jal	ra,20400fb0 <__mulsi3>
2040027c:	00a12623          	sw	a0,12(sp)
20400280:	fe9416e3          	bne	s0,s1,2040026c <factorial+0x24>
20400284:	01c12083          	lw	ra,28(sp)
20400288:	01812403          	lw	s0,24(sp)
2040028c:	00c12503          	lw	a0,12(sp)
20400290:	01412483          	lw	s1,20(sp)
20400294:	02010113          	addi	sp,sp,32
20400298:	00008067          	ret

2040029c <measure_cpu_freq>:
2040029c:	0200c7b7          	lui	a5,0x200c
204002a0:	ff87a683          	lw	a3,-8(a5) # 200bff8 <__stack_size+0x200b7f8>
204002a4:	ff010113          	addi	sp,sp,-16
204002a8:	00112623          	sw	ra,12(sp)
204002ac:	00812423          	sw	s0,8(sp)
204002b0:	00912223          	sw	s1,4(sp)
204002b4:	0200c737          	lui	a4,0x200c
204002b8:	ff872783          	lw	a5,-8(a4) # 200bff8 <__stack_size+0x200b7f8>
204002bc:	fef68ee3          	beq	a3,a5,204002b8 <measure_cpu_freq+0x1c>
204002c0:	b00026f3          	csrr	a3,mcycle
204002c4:	0200c737          	lui	a4,0x200c
204002c8:	ff872403          	lw	s0,-8(a4) # 200bff8 <__stack_size+0x200b7f8>
204002cc:	40f40433          	sub	s0,s0,a5
204002d0:	fea46ce3          	bltu	s0,a0,204002c8 <measure_cpu_freq+0x2c>
204002d4:	b00024f3          	csrr	s1,mcycle
204002d8:	40d484b3          	sub	s1,s1,a3
204002dc:	00040593          	mv	a1,s0
204002e0:	00048513          	mv	a0,s1
204002e4:	541000ef          	jal	ra,20401024 <__umodsi3>
204002e8:	00040593          	mv	a1,s0
204002ec:	00f51513          	slli	a0,a0,0xf
204002f0:	4ed000ef          	jal	ra,20400fdc <__udivsi3>
204002f4:	00050793          	mv	a5,a0
204002f8:	00040593          	mv	a1,s0
204002fc:	00048513          	mv	a0,s1
20400300:	00078413          	mv	s0,a5
20400304:	4d9000ef          	jal	ra,20400fdc <__udivsi3>
20400308:	00f51513          	slli	a0,a0,0xf
2040030c:	00c12083          	lw	ra,12(sp)
20400310:	00a40533          	add	a0,s0,a0
20400314:	00812403          	lw	s0,8(sp)
20400318:	00412483          	lw	s1,4(sp)
2040031c:	01010113          	addi	sp,sp,16
20400320:	00008067          	ret

20400324 <get_timer_value>:
20400324:	0200c7b7          	lui	a5,0x200c
20400328:	ff87a503          	lw	a0,-8(a5) # 200bff8 <__stack_size+0x200b7f8>
2040032c:	00000593          	li	a1,0
20400330:	00008067          	ret

20400334 <get_timer_freq>:
20400334:	00008537          	lui	a0,0x8
20400338:	00008067          	ret

2040033c <get_cpu_freq>:
2040033c:	ff010113          	addi	sp,sp,-16
20400340:	00812423          	sw	s0,8(sp)
20400344:	5fc00417          	auipc	s0,0x5fc00
20400348:	d2440413          	addi	s0,s0,-732 # 80000068 <__bss_start>
2040034c:	00042503          	lw	a0,0(s0)
20400350:	00112623          	sw	ra,12(sp)
20400354:	00050a63          	beqz	a0,20400368 <get_cpu_freq+0x2c>
20400358:	00c12083          	lw	ra,12(sp)
2040035c:	00812403          	lw	s0,8(sp)
20400360:	01010113          	addi	sp,sp,16
20400364:	00008067          	ret
20400368:	00100513          	li	a0,1
2040036c:	f31ff0ef          	jal	ra,2040029c <measure_cpu_freq>
20400370:	00a00513          	li	a0,10
20400374:	f29ff0ef          	jal	ra,2040029c <measure_cpu_freq>
20400378:	00c12083          	lw	ra,12(sp)
2040037c:	00a42023          	sw	a0,0(s0)
20400380:	00812403          	lw	s0,8(sp)
20400384:	01010113          	addi	sp,sp,16
20400388:	00008067          	ret

2040038c <handle_trap>:
2040038c:	ff010113          	addi	sp,sp,-16
20400390:	00812423          	sw	s0,8(sp)
20400394:	00500613          	li	a2,5
20400398:	00050413          	mv	s0,a0
2040039c:	00001597          	auipc	a1,0x1
204003a0:	d1458593          	addi	a1,a1,-748 # 204010b0 <__modsi3+0x58>
204003a4:	00100513          	li	a0,1
204003a8:	00112623          	sw	ra,12(sp)
204003ac:	19c000ef          	jal	ra,20400548 <__wrap_write>
204003b0:	00140513          	addi	a0,s0,1
204003b4:	228000ef          	jal	ra,204005dc <__wrap_exit>

204003b8 <_init>:
204003b8:	100006b7          	lui	a3,0x10000
204003bc:	0706a783          	lw	a5,112(a3) # 10000070 <__stack_size+0xffff870>
204003c0:	c0000737          	lui	a4,0xc0000
204003c4:	fff70713          	addi	a4,a4,-1 # bfffffff <_sp+0x3fffbfff>
204003c8:	ff010113          	addi	sp,sp,-16
204003cc:	00e7f7b3          	and	a5,a5,a4
204003d0:	00112623          	sw	ra,12(sp)
204003d4:	06f6a823          	sw	a5,112(a3)
204003d8:	401007b7          	lui	a5,0x40100
204003dc:	10008737          	lui	a4,0x10008
204003e0:	00478793          	addi	a5,a5,4 # 40100004 <__fini_array_end+0x1fcfed84>
204003e4:	00f72023          	sw	a5,0(a4) # 10008000 <__stack_size+0x10007800>
204003e8:	00072783          	lw	a5,0(a4)
204003ec:	fe07dee3          	bgez	a5,204003e8 <_init+0x30>
204003f0:	00872783          	lw	a5,8(a4)
204003f4:	ffff06b7          	lui	a3,0xffff0
204003f8:	fff68693          	addi	a3,a3,-1 # fffeffff <_sp+0x7ffebfff>
204003fc:	00d7f7b3          	and	a5,a5,a3
20400400:	00f72423          	sw	a5,8(a4)
20400404:	00872783          	lw	a5,8(a4)
20400408:	00f79693          	slli	a3,a5,0xf
2040040c:	0206d863          	bgez	a3,2040043c <_init+0x84>
20400410:	401007b7          	lui	a5,0x40100
20400414:	00478793          	addi	a5,a5,4 # 40100004 <__fini_array_end+0x1fcfed84>
20400418:	00f72023          	sw	a5,0(a4)
2040041c:	10008737          	lui	a4,0x10008
20400420:	00072783          	lw	a5,0(a4) # 10008000 <__stack_size+0x10007800>
20400424:	fe07dee3          	bgez	a5,20400420 <_init+0x68>
20400428:	00872783          	lw	a5,8(a4)
2040042c:	ffff06b7          	lui	a3,0xffff0
20400430:	fff68693          	addi	a3,a3,-1 # fffeffff <_sp+0x7ffebfff>
20400434:	00d7f7b3          	and	a5,a5,a3
20400438:	00f72423          	sw	a5,8(a4)
2040043c:	100147b7          	lui	a5,0x10014
20400440:	00800713          	li	a4,8
20400444:	00e7a023          	sw	a4,0(a5) # 10014000 <__stack_size+0x10013800>
20400448:	100087b7          	lui	a5,0x10008
2040044c:	10000713          	li	a4,256
20400450:	00e7a623          	sw	a4,12(a5) # 1000800c <__stack_size+0x1000780c>
20400454:	00040737          	lui	a4,0x40
20400458:	5f170713          	addi	a4,a4,1521 # 405f1 <__stack_size+0x3fdf1>
2040045c:	00e7a423          	sw	a4,8(a5)
20400460:	0087a703          	lw	a4,8(a5)
20400464:	fffc06b7          	lui	a3,0xfffc0
20400468:	fff68693          	addi	a3,a3,-1 # fffbffff <_sp+0x7ffbbfff>
2040046c:	00d77733          	and	a4,a4,a3
20400470:	00e7a423          	sw	a4,8(a5)
20400474:	0200c7b7          	lui	a5,0x200c
20400478:	ff87a603          	lw	a2,-8(a5) # 200bff8 <__stack_size+0x200b7f8>
2040047c:	0200c6b7          	lui	a3,0x200c
20400480:	00300713          	li	a4,3
20400484:	ff86a783          	lw	a5,-8(a3) # 200bff8 <__stack_size+0x200b7f8>
20400488:	40c787b3          	sub	a5,a5,a2
2040048c:	fef77ce3          	bgeu	a4,a5,20400484 <_init+0xcc>
20400490:	100087b7          	lui	a5,0x10008
20400494:	0087a703          	lw	a4,8(a5) # 10008008 <__stack_size+0x10007808>
20400498:	00878693          	addi	a3,a5,8
2040049c:	fe075ce3          	bgez	a4,20400494 <_init+0xdc>
204004a0:	0087a703          	lw	a4,8(a5)
204004a4:	00010637          	lui	a2,0x10
204004a8:	100127b7          	lui	a5,0x10012
204004ac:	00c76733          	or	a4,a4,a2
204004b0:	00e6a023          	sw	a4,0(a3)
204004b4:	03c7a703          	lw	a4,60(a5) # 1001203c <__stack_size+0x1001183c>
204004b8:	fffd06b7          	lui	a3,0xfffd0
204004bc:	fff68693          	addi	a3,a3,-1 # fffcffff <_sp+0x7ffcbfff>
204004c0:	00d77733          	and	a4,a4,a3
204004c4:	02e7ae23          	sw	a4,60(a5)
204004c8:	0387a703          	lw	a4,56(a5)
204004cc:	000306b7          	lui	a3,0x30
204004d0:	00d76733          	or	a4,a4,a3
204004d4:	02e7ac23          	sw	a4,56(a5)
204004d8:	e65ff0ef          	jal	ra,2040033c <get_cpu_freq>
204004dc:	0001c5b7          	lui	a1,0x1c
204004e0:	20058593          	addi	a1,a1,512 # 1c200 <__stack_size+0x1ba00>
204004e4:	2f9000ef          	jal	ra,20400fdc <__udivsi3>
204004e8:	100137b7          	lui	a5,0x10013
204004ec:	fff50513          	addi	a0,a0,-1 # 7fff <__stack_size+0x77ff>
204004f0:	00a7ac23          	sw	a0,24(a5) # 10013018 <__stack_size+0x10012818>
204004f4:	0087a703          	lw	a4,8(a5)
204004f8:	00176713          	ori	a4,a4,1
204004fc:	00e7a423          	sw	a4,8(a5)
20400500:	e3dff0ef          	jal	ra,2040033c <get_cpu_freq>
20400504:	00050593          	mv	a1,a0
20400508:	00001517          	auipc	a0,0x1
2040050c:	bb050513          	addi	a0,a0,-1104 # 204010b8 <__modsi3+0x60>
20400510:	68c000ef          	jal	ra,20400b9c <__wrap_printf>
20400514:	00000797          	auipc	a5,0x0
20400518:	c0c78793          	addi	a5,a5,-1012 # 20400120 <trap_entry>
2040051c:	30579073          	csrw	mtvec,a5
20400520:	301027f3          	csrr	a5,misa
20400524:	0207f793          	andi	a5,a5,32
20400528:	00078863          	beqz	a5,20400538 <_init+0x180>
2040052c:	000067b7          	lui	a5,0x6
20400530:	30079073          	csrw	mstatus,a5
20400534:	00305073          	csrwi	fcsr,0
20400538:	00c12083          	lw	ra,12(sp)
2040053c:	01010113          	addi	sp,sp,16
20400540:	00008067          	ret

20400544 <_fini>:
20400544:	00008067          	ret

20400548 <__wrap_write>:
20400548:	ff010113          	addi	sp,sp,-16
2040054c:	00812423          	sw	s0,8(sp)
20400550:	00912223          	sw	s1,4(sp)
20400554:	00112623          	sw	ra,12(sp)
20400558:	00058413          	mv	s0,a1
2040055c:	00060493          	mv	s1,a2
20400560:	070000ef          	jal	ra,204005d0 <__wrap_isatty>
20400564:	06050263          	beqz	a0,204005c8 <__wrap_write+0x80>
20400568:	02048c63          	beqz	s1,204005a0 <__wrap_write+0x58>
2040056c:	00040593          	mv	a1,s0
20400570:	00940833          	add	a6,s0,s1
20400574:	10013737          	lui	a4,0x10013
20400578:	00a00693          	li	a3,10
2040057c:	00d00613          	li	a2,13
20400580:	00072783          	lw	a5,0(a4) # 10013000 <__stack_size+0x10012800>
20400584:	fe07cee3          	bltz	a5,20400580 <__wrap_write+0x38>
20400588:	0005c783          	lbu	a5,0(a1)
2040058c:	00f72023          	sw	a5,0(a4)
20400590:	0005c783          	lbu	a5,0(a1)
20400594:	02d78263          	beq	a5,a3,204005b8 <__wrap_write+0x70>
20400598:	00158593          	addi	a1,a1,1
2040059c:	feb812e3          	bne	a6,a1,20400580 <__wrap_write+0x38>
204005a0:	00048513          	mv	a0,s1
204005a4:	00c12083          	lw	ra,12(sp)
204005a8:	00812403          	lw	s0,8(sp)
204005ac:	00412483          	lw	s1,4(sp)
204005b0:	01010113          	addi	sp,sp,16
204005b4:	00008067          	ret
204005b8:	00072783          	lw	a5,0(a4)
204005bc:	fe07cee3          	bltz	a5,204005b8 <__wrap_write+0x70>
204005c0:	00c72023          	sw	a2,0(a4)
204005c4:	fd5ff06f          	j	20400598 <__wrap_write+0x50>
204005c8:	fff00513          	li	a0,-1
204005cc:	fd9ff06f          	j	204005a4 <__wrap_write+0x5c>

204005d0 <__wrap_isatty>:
204005d0:	fff50513          	addi	a0,a0,-1
204005d4:	00253513          	sltiu	a0,a0,2
204005d8:	00008067          	ret

204005dc <__wrap_exit>:
204005dc:	00001797          	auipc	a5,0x1
204005e0:	af078793          	addi	a5,a5,-1296 # 204010cc <__modsi3+0x74>
204005e4:	0007ae83          	lw	t4,0(a5)
204005e8:	0047ae03          	lw	t3,4(a5)
204005ec:	0087a303          	lw	t1,8(a5)
204005f0:	00c7a883          	lw	a7,12(a5)
204005f4:	0107a803          	lw	a6,16(a5)
204005f8:	0147a683          	lw	a3,20(a5)
204005fc:	0187a703          	lw	a4,24(a5)
20400600:	01c7d783          	lhu	a5,28(a5)
20400604:	fd010113          	addi	sp,sp,-48
20400608:	01d00613          	li	a2,29
2040060c:	02812423          	sw	s0,40(sp)
20400610:	00010593          	mv	a1,sp
20400614:	00050413          	mv	s0,a0
20400618:	00200513          	li	a0,2
2040061c:	02112623          	sw	ra,44(sp)
20400620:	01d12023          	sw	t4,0(sp)
20400624:	01c12223          	sw	t3,4(sp)
20400628:	00612423          	sw	t1,8(sp)
2040062c:	01112623          	sw	a7,12(sp)
20400630:	01012823          	sw	a6,16(sp)
20400634:	00d12a23          	sw	a3,20(sp)
20400638:	00e12c23          	sw	a4,24(sp)
2040063c:	00f11e23          	sh	a5,28(sp)
20400640:	f09ff0ef          	jal	ra,20400548 <__wrap_write>
20400644:	00040593          	mv	a1,s0
20400648:	00200513          	li	a0,2
2040064c:	01c000ef          	jal	ra,20400668 <write_hex>
20400650:	00100613          	li	a2,1
20400654:	00001597          	auipc	a1,0x1
20400658:	a6058593          	addi	a1,a1,-1440 # 204010b4 <__modsi3+0x5c>
2040065c:	00200513          	li	a0,2
20400660:	ee9ff0ef          	jal	ra,20400548 <__wrap_write>
20400664:	0000006f          	j	20400664 <__wrap_exit+0x88>

20400668 <write_hex>:
20400668:	fd010113          	addi	sp,sp,-48
2040066c:	02912223          	sw	s1,36(sp)
20400670:	00200613          	li	a2,2
20400674:	00058493          	mv	s1,a1
20400678:	00001597          	auipc	a1,0x1
2040067c:	a7458593          	addi	a1,a1,-1420 # 204010ec <__modsi3+0x94>
20400680:	02812423          	sw	s0,40(sp)
20400684:	03212023          	sw	s2,32(sp)
20400688:	01312e23          	sw	s3,28(sp)
2040068c:	01412c23          	sw	s4,24(sp)
20400690:	01512a23          	sw	s5,20(sp)
20400694:	02112623          	sw	ra,44(sp)
20400698:	00050913          	mv	s2,a0
2040069c:	01c00413          	li	s0,28
204006a0:	ea9ff0ef          	jal	ra,20400548 <__wrap_write>
204006a4:	00f00a93          	li	s5,15
204006a8:	00900a13          	li	s4,9
204006ac:	ffc00993          	li	s3,-4
204006b0:	0240006f          	j	204006d4 <write_hex+0x6c>
204006b4:	0ff6f793          	andi	a5,a3,255
204006b8:	ffc40413          	addi	s0,s0,-4
204006bc:	00100613          	li	a2,1
204006c0:	00f10593          	addi	a1,sp,15
204006c4:	00090513          	mv	a0,s2
204006c8:	00f107a3          	sb	a5,15(sp)
204006cc:	e7dff0ef          	jal	ra,20400548 <__wrap_write>
204006d0:	05340063          	beq	s0,s3,20400710 <write_hex+0xa8>
204006d4:	008a97b3          	sll	a5,s5,s0
204006d8:	0097f7b3          	and	a5,a5,s1
204006dc:	0087d7b3          	srl	a5,a5,s0
204006e0:	0ff7f793          	andi	a5,a5,255
204006e4:	03078693          	addi	a3,a5,48
204006e8:	03778713          	addi	a4,a5,55
204006ec:	fcfa74e3          	bgeu	s4,a5,204006b4 <write_hex+0x4c>
204006f0:	0ff77793          	andi	a5,a4,255
204006f4:	ffc40413          	addi	s0,s0,-4
204006f8:	00100613          	li	a2,1
204006fc:	00f10593          	addi	a1,sp,15
20400700:	00090513          	mv	a0,s2
20400704:	00f107a3          	sb	a5,15(sp)
20400708:	e41ff0ef          	jal	ra,20400548 <__wrap_write>
2040070c:	fd3414e3          	bne	s0,s3,204006d4 <write_hex+0x6c>
20400710:	02c12083          	lw	ra,44(sp)
20400714:	02812403          	lw	s0,40(sp)
20400718:	02412483          	lw	s1,36(sp)
2040071c:	02012903          	lw	s2,32(sp)
20400720:	01c12983          	lw	s3,28(sp)
20400724:	01812a03          	lw	s4,24(sp)
20400728:	01412a83          	lw	s5,20(sp)
2040072c:	03010113          	addi	sp,sp,48
20400730:	00008067          	ret

20400734 <sprintf_putch>:
20400734:	0005a783          	lw	a5,0(a1)
20400738:	00a78023          	sb	a0,0(a5)
2040073c:	0005a783          	lw	a5,0(a1)
20400740:	00178793          	addi	a5,a5,1
20400744:	00f5a023          	sw	a5,0(a1)
20400748:	00008067          	ret

2040074c <putchar>:
2040074c:	fe010113          	addi	sp,sp,-32
20400750:	00a12623          	sw	a0,12(sp)
20400754:	00100613          	li	a2,1
20400758:	00c10593          	addi	a1,sp,12
2040075c:	00100513          	li	a0,1
20400760:	00112e23          	sw	ra,28(sp)
20400764:	de5ff0ef          	jal	ra,20400548 <__wrap_write>
20400768:	00100793          	li	a5,1
2040076c:	00f51a63          	bne	a0,a5,20400780 <putchar+0x34>
20400770:	00c12503          	lw	a0,12(sp)
20400774:	01c12083          	lw	ra,28(sp)
20400778:	02010113          	addi	sp,sp,32
2040077c:	00008067          	ret
20400780:	fff00513          	li	a0,-1
20400784:	ff1ff06f          	j	20400774 <putchar+0x28>

20400788 <vprintfmt>:
20400788:	f3010113          	addi	sp,sp,-208
2040078c:	0b612823          	sw	s6,176(sp)
20400790:	40000b37          	lui	s6,0x40000
20400794:	fffb0793          	addi	a5,s6,-1 # 3fffffff <__fini_array_end+0x1fbfed7f>
20400798:	0c812423          	sw	s0,200(sp)
2040079c:	0c912223          	sw	s1,196(sp)
204007a0:	0d212023          	sw	s2,192(sp)
204007a4:	0b312e23          	sw	s3,188(sp)
204007a8:	0b412c23          	sw	s4,184(sp)
204007ac:	0c112623          	sw	ra,204(sp)
204007b0:	0b512a23          	sw	s5,180(sp)
204007b4:	0b712623          	sw	s7,172(sp)
204007b8:	0b812423          	sw	s8,168(sp)
204007bc:	0b912223          	sw	s9,164(sp)
204007c0:	0ba12023          	sw	s10,160(sp)
204007c4:	09b12e23          	sw	s11,156(sp)
204007c8:	00050913          	mv	s2,a0
204007cc:	00058493          	mv	s1,a1
204007d0:	00060413          	mv	s0,a2
204007d4:	00d12423          	sw	a3,8(sp)
204007d8:	02500993          	li	s3,37
204007dc:	00900a13          	li	s4,9
204007e0:	00f12623          	sw	a5,12(sp)
204007e4:	05500c93          	li	s9,85
204007e8:	0140006f          	j	204007fc <vprintfmt+0x74>
204007ec:	04050e63          	beqz	a0,20400848 <vprintfmt+0xc0>
204007f0:	00048593          	mv	a1,s1
204007f4:	00140413          	addi	s0,s0,1
204007f8:	000900e7          	jalr	s2
204007fc:	00044503          	lbu	a0,0(s0)
20400800:	ff3516e3          	bne	a0,s3,204007ec <vprintfmt+0x64>
20400804:	00144683          	lbu	a3,1(s0)
20400808:	00140613          	addi	a2,s0,1
2040080c:	00060713          	mv	a4,a2
20400810:	02000d13          	li	s10,32
20400814:	fff00d93          	li	s11,-1
20400818:	fff00c13          	li	s8,-1
2040081c:	fdd68793          	addi	a5,a3,-35 # 2ffdd <__stack_size+0x2f7dd>
20400820:	0ff7f793          	andi	a5,a5,255
20400824:	00170413          	addi	s0,a4,1
20400828:	06fcec63          	bltu	s9,a5,204008a0 <vprintfmt+0x118>
2040082c:	00001597          	auipc	a1,0x1
20400830:	8cc58593          	addi	a1,a1,-1844 # 204010f8 <__modsi3+0xa0>
20400834:	00279793          	slli	a5,a5,0x2
20400838:	00b787b3          	add	a5,a5,a1
2040083c:	0007a783          	lw	a5,0(a5)
20400840:	00b787b3          	add	a5,a5,a1
20400844:	00078067          	jr	a5
20400848:	0cc12083          	lw	ra,204(sp)
2040084c:	0c812403          	lw	s0,200(sp)
20400850:	0c412483          	lw	s1,196(sp)
20400854:	0c012903          	lw	s2,192(sp)
20400858:	0bc12983          	lw	s3,188(sp)
2040085c:	0b812a03          	lw	s4,184(sp)
20400860:	0b412a83          	lw	s5,180(sp)
20400864:	0b012b03          	lw	s6,176(sp)
20400868:	0ac12b83          	lw	s7,172(sp)
2040086c:	0a812c03          	lw	s8,168(sp)
20400870:	0a412c83          	lw	s9,164(sp)
20400874:	0a012d03          	lw	s10,160(sp)
20400878:	09c12d83          	lw	s11,156(sp)
2040087c:	0d010113          	addi	sp,sp,208
20400880:	00008067          	ret
20400884:	00068d13          	mv	s10,a3
20400888:	00174683          	lbu	a3,1(a4)
2040088c:	00040713          	mv	a4,s0
20400890:	00170413          	addi	s0,a4,1
20400894:	fdd68793          	addi	a5,a3,-35
20400898:	0ff7f793          	andi	a5,a5,255
2040089c:	f8fcf8e3          	bgeu	s9,a5,2040082c <vprintfmt+0xa4>
204008a0:	00048593          	mv	a1,s1
204008a4:	02500513          	li	a0,37
204008a8:	00c12223          	sw	a2,4(sp)
204008ac:	000900e7          	jalr	s2
204008b0:	00412603          	lw	a2,4(sp)
204008b4:	00060413          	mv	s0,a2
204008b8:	f2dff06f          	j	204007e4 <vprintfmt+0x5c>
204008bc:	00174683          	lbu	a3,1(a4)
204008c0:	00040713          	mv	a4,s0
204008c4:	f59ff06f          	j	2040081c <vprintfmt+0x94>
204008c8:	00174583          	lbu	a1,1(a4)
204008cc:	fd068d93          	addi	s11,a3,-48
204008d0:	00040713          	mv	a4,s0
204008d4:	fd058793          	addi	a5,a1,-48
204008d8:	00058693          	mv	a3,a1
204008dc:	02fa6663          	bltu	s4,a5,20400908 <vprintfmt+0x180>
204008e0:	002d9793          	slli	a5,s11,0x2
204008e4:	01b78db3          	add	s11,a5,s11
204008e8:	00170713          	addi	a4,a4,1
204008ec:	001d9d93          	slli	s11,s11,0x1
204008f0:	00bd8db3          	add	s11,s11,a1
204008f4:	00074583          	lbu	a1,0(a4)
204008f8:	fd0d8d93          	addi	s11,s11,-48
204008fc:	fd058793          	addi	a5,a1,-48
20400900:	00058693          	mv	a3,a1
20400904:	fcfa7ee3          	bgeu	s4,a5,204008e0 <vprintfmt+0x158>
20400908:	f00c5ae3          	bgez	s8,2040081c <vprintfmt+0x94>
2040090c:	000d8c13          	mv	s8,s11
20400910:	fff00d93          	li	s11,-1
20400914:	f09ff06f          	j	2040081c <vprintfmt+0x94>
20400918:	00812783          	lw	a5,8(sp)
2040091c:	0007aa83          	lw	s5,0(a5)
20400920:	00478b13          	addi	s6,a5,4
20400924:	000ada63          	bgez	s5,20400938 <vprintfmt+0x1b0>
20400928:	00048593          	mv	a1,s1
2040092c:	02d00513          	li	a0,45
20400930:	000900e7          	jalr	s2
20400934:	41500ab3          	neg	s5,s5
20400938:	01612423          	sw	s6,8(sp)
2040093c:	00a00b93          	li	s7,10
20400940:	000b8593          	mv	a1,s7
20400944:	000a8513          	mv	a0,s5
20400948:	6dc000ef          	jal	ra,20401024 <__umodsi3>
2040094c:	00a12823          	sw	a0,16(sp)
20400950:	00050c93          	mv	s9,a0
20400954:	01410d93          	addi	s11,sp,20
20400958:	00100b13          	li	s6,1
2040095c:	1f7ae663          	bltu	s5,s7,20400b48 <vprintfmt+0x3c0>
20400960:	000b8593          	mv	a1,s7
20400964:	000a8513          	mv	a0,s5
20400968:	674000ef          	jal	ra,20400fdc <__udivsi3>
2040096c:	000b8593          	mv	a1,s7
20400970:	00050a93          	mv	s5,a0
20400974:	6b0000ef          	jal	ra,20401024 <__umodsi3>
20400978:	00ada023          	sw	a0,0(s11)
2040097c:	01612223          	sw	s6,4(sp)
20400980:	00050c93          	mv	s9,a0
20400984:	004d8d93          	addi	s11,s11,4
20400988:	001b0b13          	addi	s6,s6,1
2040098c:	fd7afae3          	bgeu	s5,s7,20400960 <vprintfmt+0x1d8>
20400990:	018b5c63          	bge	s6,s8,204009a8 <vprintfmt+0x220>
20400994:	fffc0c13          	addi	s8,s8,-1
20400998:	00048593          	mv	a1,s1
2040099c:	000d0513          	mv	a0,s10
204009a0:	000900e7          	jalr	s2
204009a4:	ff8b48e3          	blt	s6,s8,20400994 <vprintfmt+0x20c>
204009a8:	00412783          	lw	a5,4(sp)
204009ac:	00c12703          	lw	a4,12(sp)
204009b0:	00c10c13          	addi	s8,sp,12
204009b4:	00e78d33          	add	s10,a5,a4
204009b8:	002d1d13          	slli	s10,s10,0x2
204009bc:	01010793          	addi	a5,sp,16
204009c0:	01a78d33          	add	s10,a5,s10
204009c4:	00c0006f          	j	204009d0 <vprintfmt+0x248>
204009c8:	000d2c83          	lw	s9,0(s10)
204009cc:	ffcd0d13          	addi	s10,s10,-4
204009d0:	019a37b3          	sltu	a5,s4,s9
204009d4:	40f007b3          	neg	a5,a5
204009d8:	0277f793          	andi	a5,a5,39
204009dc:	03078793          	addi	a5,a5,48
204009e0:	00048593          	mv	a1,s1
204009e4:	01978533          	add	a0,a5,s9
204009e8:	000900e7          	jalr	s2
204009ec:	fdac1ee3          	bne	s8,s10,204009c8 <vprintfmt+0x240>
204009f0:	df5ff06f          	j	204007e4 <vprintfmt+0x5c>
204009f4:	00812783          	lw	a5,8(sp)
204009f8:	00048593          	mv	a1,s1
204009fc:	0007a503          	lw	a0,0(a5)
20400a00:	00478a93          	addi	s5,a5,4
20400a04:	000900e7          	jalr	s2
20400a08:	01512423          	sw	s5,8(sp)
20400a0c:	dd9ff06f          	j	204007e4 <vprintfmt+0x5c>
20400a10:	03000513          	li	a0,48
20400a14:	00048593          	mv	a1,s1
20400a18:	000900e7          	jalr	s2
20400a1c:	00048593          	mv	a1,s1
20400a20:	07800513          	li	a0,120
20400a24:	000900e7          	jalr	s2
20400a28:	00812783          	lw	a5,8(sp)
20400a2c:	01000b93          	li	s7,16
20400a30:	00478793          	addi	a5,a5,4
20400a34:	00f12423          	sw	a5,8(sp)
20400a38:	ffc7aa83          	lw	s5,-4(a5)
20400a3c:	f05ff06f          	j	20400940 <vprintfmt+0x1b8>
20400a40:	00812783          	lw	a5,8(sp)
20400a44:	0007ac83          	lw	s9,0(a5)
20400a48:	00478a93          	addi	s5,a5,4
20400a4c:	100c8e63          	beqz	s9,20400b68 <vprintfmt+0x3e0>
20400a50:	09805663          	blez	s8,20400adc <vprintfmt+0x354>
20400a54:	02d00793          	li	a5,45
20400a58:	04fd1e63          	bne	s10,a5,20400ab4 <vprintfmt+0x32c>
20400a5c:	000cc503          	lbu	a0,0(s9)
20400a60:	02050863          	beqz	a0,20400a90 <vprintfmt+0x308>
20400a64:	fff00d13          	li	s10,-1
20400a68:	000dc663          	bltz	s11,20400a74 <vprintfmt+0x2ec>
20400a6c:	fffd8d93          	addi	s11,s11,-1
20400a70:	01ad8e63          	beq	s11,s10,20400a8c <vprintfmt+0x304>
20400a74:	00048593          	mv	a1,s1
20400a78:	001c8c93          	addi	s9,s9,1
20400a7c:	000900e7          	jalr	s2
20400a80:	000cc503          	lbu	a0,0(s9)
20400a84:	fffc0c13          	addi	s8,s8,-1
20400a88:	fe0510e3          	bnez	a0,20400a68 <vprintfmt+0x2e0>
20400a8c:	01805c63          	blez	s8,20400aa4 <vprintfmt+0x31c>
20400a90:	fffc0c13          	addi	s8,s8,-1
20400a94:	00048593          	mv	a1,s1
20400a98:	02000513          	li	a0,32
20400a9c:	000900e7          	jalr	s2
20400aa0:	fe0c18e3          	bnez	s8,20400a90 <vprintfmt+0x308>
20400aa4:	01512423          	sw	s5,8(sp)
20400aa8:	d3dff06f          	j	204007e4 <vprintfmt+0x5c>
20400aac:	00000c97          	auipc	s9,0x0
20400ab0:	644c8c93          	addi	s9,s9,1604 # 204010f0 <__modsi3+0x98>
20400ab4:	000d8593          	mv	a1,s11
20400ab8:	000c8513          	mv	a0,s9
20400abc:	2f8000ef          	jal	ra,20400db4 <strnlen>
20400ac0:	40ac0c33          	sub	s8,s8,a0
20400ac4:	01805c63          	blez	s8,20400adc <vprintfmt+0x354>
20400ac8:	fffc0c13          	addi	s8,s8,-1
20400acc:	00048593          	mv	a1,s1
20400ad0:	000d0513          	mv	a0,s10
20400ad4:	000900e7          	jalr	s2
20400ad8:	fe0c18e3          	bnez	s8,20400ac8 <vprintfmt+0x340>
20400adc:	000cc503          	lbu	a0,0(s9)
20400ae0:	fc0502e3          	beqz	a0,20400aa4 <vprintfmt+0x31c>
20400ae4:	fff00d13          	li	s10,-1
20400ae8:	f81ff06f          	j	20400a68 <vprintfmt+0x2e0>
20400aec:	00812783          	lw	a5,8(sp)
20400af0:	00174683          	lbu	a3,1(a4)
20400af4:	00040713          	mv	a4,s0
20400af8:	0007ad83          	lw	s11,0(a5)
20400afc:	00478793          	addi	a5,a5,4
20400b00:	00f12423          	sw	a5,8(sp)
20400b04:	e05ff06f          	j	20400908 <vprintfmt+0x180>
20400b08:	01000b93          	li	s7,16
20400b0c:	00812783          	lw	a5,8(sp)
20400b10:	0007aa83          	lw	s5,0(a5)
20400b14:	00478793          	addi	a5,a5,4
20400b18:	00f12423          	sw	a5,8(sp)
20400b1c:	e25ff06f          	j	20400940 <vprintfmt+0x1b8>
20400b20:	00048593          	mv	a1,s1
20400b24:	02500513          	li	a0,37
20400b28:	000900e7          	jalr	s2
20400b2c:	cb9ff06f          	j	204007e4 <vprintfmt+0x5c>
20400b30:	fffc4793          	not	a5,s8
20400b34:	41f7d793          	srai	a5,a5,0x1f
20400b38:	00174683          	lbu	a3,1(a4)
20400b3c:	00fc7c33          	and	s8,s8,a5
20400b40:	00040713          	mv	a4,s0
20400b44:	cd9ff06f          	j	2040081c <vprintfmt+0x94>
20400b48:	00100793          	li	a5,1
20400b4c:	00012223          	sw	zero,4(sp)
20400b50:	e587c2e3          	blt	a5,s8,20400994 <vprintfmt+0x20c>
20400b54:	e55ff06f          	j	204009a8 <vprintfmt+0x220>
20400b58:	00800b93          	li	s7,8
20400b5c:	fb1ff06f          	j	20400b0c <vprintfmt+0x384>
20400b60:	00a00b93          	li	s7,10
20400b64:	fa9ff06f          	j	20400b0c <vprintfmt+0x384>
20400b68:	03805063          	blez	s8,20400b88 <vprintfmt+0x400>
20400b6c:	02d00793          	li	a5,45
20400b70:	f2fd1ee3          	bne	s10,a5,20400aac <vprintfmt+0x324>
20400b74:	02800513          	li	a0,40
20400b78:	00000c97          	auipc	s9,0x0
20400b7c:	578c8c93          	addi	s9,s9,1400 # 204010f0 <__modsi3+0x98>
20400b80:	fff00d13          	li	s10,-1
20400b84:	ee5ff06f          	j	20400a68 <vprintfmt+0x2e0>
20400b88:	00000c97          	auipc	s9,0x0
20400b8c:	568c8c93          	addi	s9,s9,1384 # 204010f0 <__modsi3+0x98>
20400b90:	02800513          	li	a0,40
20400b94:	fff00d13          	li	s10,-1
20400b98:	ed1ff06f          	j	20400a68 <vprintfmt+0x2e0>

20400b9c <__wrap_printf>:
20400b9c:	fc010113          	addi	sp,sp,-64
20400ba0:	02410313          	addi	t1,sp,36
20400ba4:	00050e13          	mv	t3,a0
20400ba8:	02b12223          	sw	a1,36(sp)
20400bac:	02c12423          	sw	a2,40(sp)
20400bb0:	02d12623          	sw	a3,44(sp)
20400bb4:	00000517          	auipc	a0,0x0
20400bb8:	b9850513          	addi	a0,a0,-1128 # 2040074c <putchar>
20400bbc:	00030693          	mv	a3,t1
20400bc0:	000e0613          	mv	a2,t3
20400bc4:	00000593          	li	a1,0
20400bc8:	00112e23          	sw	ra,28(sp)
20400bcc:	02e12823          	sw	a4,48(sp)
20400bd0:	02f12a23          	sw	a5,52(sp)
20400bd4:	03012c23          	sw	a6,56(sp)
20400bd8:	03112e23          	sw	a7,60(sp)
20400bdc:	00612623          	sw	t1,12(sp)
20400be0:	ba9ff0ef          	jal	ra,20400788 <vprintfmt>
20400be4:	01c12083          	lw	ra,28(sp)
20400be8:	00000513          	li	a0,0
20400bec:	04010113          	addi	sp,sp,64
20400bf0:	00008067          	ret

20400bf4 <__wrap_sprintf>:
20400bf4:	fb010113          	addi	sp,sp,-80
20400bf8:	03810313          	addi	t1,sp,56
20400bfc:	02812423          	sw	s0,40(sp)
20400c00:	00a12623          	sw	a0,12(sp)
20400c04:	02c12c23          	sw	a2,56(sp)
20400c08:	02d12e23          	sw	a3,60(sp)
20400c0c:	00050413          	mv	s0,a0
20400c10:	00058613          	mv	a2,a1
20400c14:	00000517          	auipc	a0,0x0
20400c18:	b2050513          	addi	a0,a0,-1248 # 20400734 <sprintf_putch>
20400c1c:	00c10593          	addi	a1,sp,12
20400c20:	00030693          	mv	a3,t1
20400c24:	02112623          	sw	ra,44(sp)
20400c28:	04f12223          	sw	a5,68(sp)
20400c2c:	04e12023          	sw	a4,64(sp)
20400c30:	05012423          	sw	a6,72(sp)
20400c34:	05112623          	sw	a7,76(sp)
20400c38:	00612e23          	sw	t1,28(sp)
20400c3c:	b4dff0ef          	jal	ra,20400788 <vprintfmt>
20400c40:	00c12783          	lw	a5,12(sp)
20400c44:	00078023          	sb	zero,0(a5)
20400c48:	00c12503          	lw	a0,12(sp)
20400c4c:	02c12083          	lw	ra,44(sp)
20400c50:	40850533          	sub	a0,a0,s0
20400c54:	02812403          	lw	s0,40(sp)
20400c58:	05010113          	addi	sp,sp,80
20400c5c:	00008067          	ret

20400c60 <atexit>:
20400c60:	00050593          	mv	a1,a0
20400c64:	00000693          	li	a3,0
20400c68:	00000613          	li	a2,0
20400c6c:	00000513          	li	a0,0
20400c70:	1680006f          	j	20400dd8 <__register_exitproc>

20400c74 <exit>:
20400c74:	ff010113          	addi	sp,sp,-16
20400c78:	204017b7          	lui	a5,0x20401
20400c7c:	00812423          	sw	s0,8(sp)
20400c80:	00112623          	sw	ra,12(sp)
20400c84:	e7878793          	addi	a5,a5,-392 # 20400e78 <__call_exitprocs>
20400c88:	00050413          	mv	s0,a0
20400c8c:	00078663          	beqz	a5,20400c98 <exit+0x24>
20400c90:	00000593          	li	a1,0
20400c94:	1e4000ef          	jal	ra,20400e78 <__call_exitprocs>
20400c98:	204017b7          	lui	a5,0x20401
20400c9c:	27c7a503          	lw	a0,636(a5) # 2040127c <_global_impure_ptr>
20400ca0:	02852783          	lw	a5,40(a0)
20400ca4:	00078463          	beqz	a5,20400cac <exit+0x38>
20400ca8:	000780e7          	jalr	a5
20400cac:	00040513          	mv	a0,s0
20400cb0:	92dff0ef          	jal	ra,204005dc <__wrap_exit>

20400cb4 <__libc_fini_array>:
20400cb4:	ff010113          	addi	sp,sp,-16
20400cb8:	204017b7          	lui	a5,0x20401
20400cbc:	00812423          	sw	s0,8(sp)
20400cc0:	20401437          	lui	s0,0x20401
20400cc4:	28078713          	addi	a4,a5,640 # 20401280 <__fini_array_end>
20400cc8:	28040413          	addi	s0,s0,640 # 20401280 <__fini_array_end>
20400ccc:	40e40433          	sub	s0,s0,a4
20400cd0:	00912223          	sw	s1,4(sp)
20400cd4:	00112623          	sw	ra,12(sp)
20400cd8:	40245413          	srai	s0,s0,0x2
20400cdc:	28078493          	addi	s1,a5,640
20400ce0:	00041c63          	bnez	s0,20400cf8 <__libc_fini_array+0x44>
20400ce4:	00c12083          	lw	ra,12(sp)
20400ce8:	00812403          	lw	s0,8(sp)
20400cec:	00412483          	lw	s1,4(sp)
20400cf0:	01010113          	addi	sp,sp,16
20400cf4:	00008067          	ret
20400cf8:	fff40413          	addi	s0,s0,-1
20400cfc:	00241793          	slli	a5,s0,0x2
20400d00:	00f487b3          	add	a5,s1,a5
20400d04:	0007a783          	lw	a5,0(a5)
20400d08:	000780e7          	jalr	a5
20400d0c:	fd5ff06f          	j	20400ce0 <__libc_fini_array+0x2c>

20400d10 <__libc_init_array>:
20400d10:	ff010113          	addi	sp,sp,-16
20400d14:	204017b7          	lui	a5,0x20401
20400d18:	00812423          	sw	s0,8(sp)
20400d1c:	20401437          	lui	s0,0x20401
20400d20:	28078713          	addi	a4,a5,640 # 20401280 <__fini_array_end>
20400d24:	28040413          	addi	s0,s0,640 # 20401280 <__fini_array_end>
20400d28:	40e40433          	sub	s0,s0,a4
20400d2c:	00912223          	sw	s1,4(sp)
20400d30:	01212023          	sw	s2,0(sp)
20400d34:	00112623          	sw	ra,12(sp)
20400d38:	40245413          	srai	s0,s0,0x2
20400d3c:	00000493          	li	s1,0
20400d40:	28078913          	addi	s2,a5,640
20400d44:	04849063          	bne	s1,s0,20400d84 <__libc_init_array+0x74>
20400d48:	204017b7          	lui	a5,0x20401
20400d4c:	20401437          	lui	s0,0x20401
20400d50:	28078713          	addi	a4,a5,640 # 20401280 <__fini_array_end>
20400d54:	28040413          	addi	s0,s0,640 # 20401280 <__fini_array_end>
20400d58:	40e40433          	sub	s0,s0,a4
20400d5c:	40245413          	srai	s0,s0,0x2
20400d60:	00000493          	li	s1,0
20400d64:	28078913          	addi	s2,a5,640
20400d68:	02849a63          	bne	s1,s0,20400d9c <__libc_init_array+0x8c>
20400d6c:	00c12083          	lw	ra,12(sp)
20400d70:	00812403          	lw	s0,8(sp)
20400d74:	00412483          	lw	s1,4(sp)
20400d78:	00012903          	lw	s2,0(sp)
20400d7c:	01010113          	addi	sp,sp,16
20400d80:	00008067          	ret
20400d84:	00249793          	slli	a5,s1,0x2
20400d88:	00f907b3          	add	a5,s2,a5
20400d8c:	0007a783          	lw	a5,0(a5)
20400d90:	00148493          	addi	s1,s1,1
20400d94:	000780e7          	jalr	a5
20400d98:	fadff06f          	j	20400d44 <__libc_init_array+0x34>
20400d9c:	00249793          	slli	a5,s1,0x2
20400da0:	00f907b3          	add	a5,s2,a5
20400da4:	0007a783          	lw	a5,0(a5)
20400da8:	00148493          	addi	s1,s1,1
20400dac:	000780e7          	jalr	a5
20400db0:	fb9ff06f          	j	20400d68 <__libc_init_array+0x58>

20400db4 <strnlen>:
20400db4:	00b505b3          	add	a1,a0,a1
20400db8:	00050793          	mv	a5,a0
20400dbc:	00b79663          	bne	a5,a1,20400dc8 <strnlen+0x14>
20400dc0:	40a78533          	sub	a0,a5,a0
20400dc4:	00008067          	ret
20400dc8:	0007c703          	lbu	a4,0(a5)
20400dcc:	fe070ae3          	beqz	a4,20400dc0 <strnlen+0xc>
20400dd0:	00178793          	addi	a5,a5,1
20400dd4:	fe9ff06f          	j	20400dbc <strnlen+0x8>

20400dd8 <__register_exitproc>:
20400dd8:	80c1a783          	lw	a5,-2036(gp) # 8000006c <_global_atexit>
20400ddc:	00050893          	mv	a7,a0
20400de0:	02079463          	bnez	a5,20400e08 <__register_exitproc+0x30>
20400de4:	81018513          	addi	a0,gp,-2032 # 80000070 <_global_atexit0>
20400de8:	80a1a623          	sw	a0,-2036(gp) # 8000006c <_global_atexit>
20400dec:	00000837          	lui	a6,0x0
20400df0:	00080313          	mv	t1,a6
20400df4:	81018793          	addi	a5,gp,-2032 # 80000070 <_global_atexit0>
20400df8:	00030863          	beqz	t1,20400e08 <__register_exitproc+0x30>
20400dfc:	00082783          	lw	a5,0(a6) # 0 <__stack_size-0x800>
20400e00:	08f52423          	sw	a5,136(a0)
20400e04:	81018793          	addi	a5,gp,-2032 # 80000070 <_global_atexit0>
20400e08:	0047a703          	lw	a4,4(a5)
20400e0c:	01f00813          	li	a6,31
20400e10:	fff00513          	li	a0,-1
20400e14:	06e84063          	blt	a6,a4,20400e74 <__register_exitproc+0x9c>
20400e18:	04088263          	beqz	a7,20400e5c <__register_exitproc+0x84>
20400e1c:	0887a803          	lw	a6,136(a5)
20400e20:	04080a63          	beqz	a6,20400e74 <__register_exitproc+0x9c>
20400e24:	00271513          	slli	a0,a4,0x2
20400e28:	00a80533          	add	a0,a6,a0
20400e2c:	00c52023          	sw	a2,0(a0)
20400e30:	10082303          	lw	t1,256(a6)
20400e34:	00100613          	li	a2,1
20400e38:	00e61633          	sll	a2,a2,a4
20400e3c:	00c36333          	or	t1,t1,a2
20400e40:	10682023          	sw	t1,256(a6)
20400e44:	08d52023          	sw	a3,128(a0)
20400e48:	00200693          	li	a3,2
20400e4c:	00d89863          	bne	a7,a3,20400e5c <__register_exitproc+0x84>
20400e50:	10482683          	lw	a3,260(a6)
20400e54:	00c6e633          	or	a2,a3,a2
20400e58:	10c82223          	sw	a2,260(a6)
20400e5c:	00170693          	addi	a3,a4,1
20400e60:	00271713          	slli	a4,a4,0x2
20400e64:	00d7a223          	sw	a3,4(a5)
20400e68:	00e787b3          	add	a5,a5,a4
20400e6c:	00b7a423          	sw	a1,8(a5)
20400e70:	00000513          	li	a0,0
20400e74:	00008067          	ret

20400e78 <__call_exitprocs>:
20400e78:	fd010113          	addi	sp,sp,-48
20400e7c:	01412c23          	sw	s4,24(sp)
20400e80:	01512a23          	sw	s5,20(sp)
20400e84:	01612823          	sw	s6,16(sp)
20400e88:	01812423          	sw	s8,8(sp)
20400e8c:	02112623          	sw	ra,44(sp)
20400e90:	02812423          	sw	s0,40(sp)
20400e94:	02912223          	sw	s1,36(sp)
20400e98:	03212023          	sw	s2,32(sp)
20400e9c:	01312e23          	sw	s3,28(sp)
20400ea0:	01712623          	sw	s7,12(sp)
20400ea4:	01912223          	sw	s9,4(sp)
20400ea8:	00050a93          	mv	s5,a0
20400eac:	00058a13          	mv	s4,a1
20400eb0:	00100c13          	li	s8,1
20400eb4:	80c1a403          	lw	s0,-2036(gp) # 8000006c <_global_atexit>
20400eb8:	80c18b93          	addi	s7,gp,-2036 # 8000006c <_global_atexit>
20400ebc:	00040e63          	beqz	s0,20400ed8 <__call_exitprocs+0x60>
20400ec0:	00442483          	lw	s1,4(s0)
20400ec4:	08842983          	lw	s3,136(s0)
20400ec8:	fff48913          	addi	s2,s1,-1
20400ecc:	00249493          	slli	s1,s1,0x2
20400ed0:	009404b3          	add	s1,s0,s1
20400ed4:	02095c63          	bgez	s2,20400f0c <__call_exitprocs+0x94>
20400ed8:	02c12083          	lw	ra,44(sp)
20400edc:	02812403          	lw	s0,40(sp)
20400ee0:	02412483          	lw	s1,36(sp)
20400ee4:	02012903          	lw	s2,32(sp)
20400ee8:	01c12983          	lw	s3,28(sp)
20400eec:	01812a03          	lw	s4,24(sp)
20400ef0:	01412a83          	lw	s5,20(sp)
20400ef4:	01012b03          	lw	s6,16(sp)
20400ef8:	00c12b83          	lw	s7,12(sp)
20400efc:	00812c03          	lw	s8,8(sp)
20400f00:	00412c83          	lw	s9,4(sp)
20400f04:	03010113          	addi	sp,sp,48
20400f08:	00008067          	ret
20400f0c:	020a0263          	beqz	s4,20400f30 <__call_exitprocs+0xb8>
20400f10:	00099863          	bnez	s3,20400f20 <__call_exitprocs+0xa8>
20400f14:	fff90913          	addi	s2,s2,-1
20400f18:	ffc48493          	addi	s1,s1,-4
20400f1c:	fb9ff06f          	j	20400ed4 <__call_exitprocs+0x5c>
20400f20:	00291793          	slli	a5,s2,0x2
20400f24:	00f987b3          	add	a5,s3,a5
20400f28:	0807a783          	lw	a5,128(a5)
20400f2c:	ff4794e3          	bne	a5,s4,20400f14 <__call_exitprocs+0x9c>
20400f30:	00442703          	lw	a4,4(s0)
20400f34:	0044a783          	lw	a5,4(s1)
20400f38:	fff70713          	addi	a4,a4,-1
20400f3c:	03271e63          	bne	a4,s2,20400f78 <__call_exitprocs+0x100>
20400f40:	01242223          	sw	s2,4(s0)
20400f44:	fc0788e3          	beqz	a5,20400f14 <__call_exitprocs+0x9c>
20400f48:	00442c83          	lw	s9,4(s0)
20400f4c:	00098a63          	beqz	s3,20400f60 <__call_exitprocs+0xe8>
20400f50:	1009a683          	lw	a3,256(s3)
20400f54:	012c1733          	sll	a4,s8,s2
20400f58:	00d776b3          	and	a3,a4,a3
20400f5c:	02069263          	bnez	a3,20400f80 <__call_exitprocs+0x108>
20400f60:	000780e7          	jalr	a5
20400f64:	00442703          	lw	a4,4(s0)
20400f68:	000ba783          	lw	a5,0(s7)
20400f6c:	f59714e3          	bne	a4,s9,20400eb4 <__call_exitprocs+0x3c>
20400f70:	faf402e3          	beq	s0,a5,20400f14 <__call_exitprocs+0x9c>
20400f74:	f41ff06f          	j	20400eb4 <__call_exitprocs+0x3c>
20400f78:	0004a223          	sw	zero,4(s1)
20400f7c:	fc9ff06f          	j	20400f44 <__call_exitprocs+0xcc>
20400f80:	00291693          	slli	a3,s2,0x2
20400f84:	00d986b3          	add	a3,s3,a3
20400f88:	0006a583          	lw	a1,0(a3)
20400f8c:	1049a683          	lw	a3,260(s3)
20400f90:	00d77733          	and	a4,a4,a3
20400f94:	00071863          	bnez	a4,20400fa4 <__call_exitprocs+0x12c>
20400f98:	000a8513          	mv	a0,s5
20400f9c:	000780e7          	jalr	a5
20400fa0:	fc5ff06f          	j	20400f64 <__call_exitprocs+0xec>
20400fa4:	00058513          	mv	a0,a1
20400fa8:	000780e7          	jalr	a5
20400fac:	fb9ff06f          	j	20400f64 <__call_exitprocs+0xec>

20400fb0 <__mulsi3>:
20400fb0:	00050613          	mv	a2,a0
20400fb4:	00000513          	li	a0,0
20400fb8:	0015f693          	andi	a3,a1,1
20400fbc:	00068463          	beqz	a3,20400fc4 <__mulsi3+0x14>
20400fc0:	00c50533          	add	a0,a0,a2
20400fc4:	0015d593          	srli	a1,a1,0x1
20400fc8:	00161613          	slli	a2,a2,0x1
20400fcc:	fe0596e3          	bnez	a1,20400fb8 <__mulsi3+0x8>
20400fd0:	00008067          	ret

20400fd4 <__divsi3>:
20400fd4:	06054063          	bltz	a0,20401034 <__umodsi3+0x10>
20400fd8:	0605c663          	bltz	a1,20401044 <__umodsi3+0x20>

20400fdc <__udivsi3>:
20400fdc:	00058613          	mv	a2,a1
20400fe0:	00050593          	mv	a1,a0
20400fe4:	fff00513          	li	a0,-1
20400fe8:	02060c63          	beqz	a2,20401020 <__udivsi3+0x44>
20400fec:	00100693          	li	a3,1
20400ff0:	00b67a63          	bgeu	a2,a1,20401004 <__udivsi3+0x28>
20400ff4:	00c05863          	blez	a2,20401004 <__udivsi3+0x28>
20400ff8:	00161613          	slli	a2,a2,0x1
20400ffc:	00169693          	slli	a3,a3,0x1
20401000:	feb66ae3          	bltu	a2,a1,20400ff4 <__udivsi3+0x18>
20401004:	00000513          	li	a0,0
20401008:	00c5e663          	bltu	a1,a2,20401014 <__udivsi3+0x38>
2040100c:	40c585b3          	sub	a1,a1,a2
20401010:	00d56533          	or	a0,a0,a3
20401014:	0016d693          	srli	a3,a3,0x1
20401018:	00165613          	srli	a2,a2,0x1
2040101c:	fe0696e3          	bnez	a3,20401008 <__udivsi3+0x2c>
20401020:	00008067          	ret

20401024 <__umodsi3>:
20401024:	00008293          	mv	t0,ra
20401028:	fb5ff0ef          	jal	ra,20400fdc <__udivsi3>
2040102c:	00058513          	mv	a0,a1
20401030:	00028067          	jr	t0
20401034:	40a00533          	neg	a0,a0
20401038:	0005d863          	bgez	a1,20401048 <__umodsi3+0x24>
2040103c:	40b005b3          	neg	a1,a1
20401040:	f9dff06f          	j	20400fdc <__udivsi3>
20401044:	40b005b3          	neg	a1,a1
20401048:	00008293          	mv	t0,ra
2040104c:	f91ff0ef          	jal	ra,20400fdc <__udivsi3>
20401050:	40a00533          	neg	a0,a0
20401054:	00028067          	jr	t0

20401058 <__modsi3>:
20401058:	00008293          	mv	t0,ra
2040105c:	0005ca63          	bltz	a1,20401070 <__modsi3+0x18>
20401060:	00054c63          	bltz	a0,20401078 <__modsi3+0x20>
20401064:	f79ff0ef          	jal	ra,20400fdc <__udivsi3>
20401068:	00058513          	mv	a0,a1
2040106c:	00028067          	jr	t0
20401070:	40b005b3          	neg	a1,a1
20401074:	fe0558e3          	bgez	a0,20401064 <__modsi3+0xc>
20401078:	40a00533          	neg	a0,a0
2040107c:	f61ff0ef          	jal	ra,20400fdc <__udivsi3>
20401080:	40b00533          	neg	a0,a1
20401084:	00028067          	jr	t0
